target datalayout = "e-m:e-p270:32:32-p271:32:32-p272:64:64-i64:64-i128:128-f80:128-n8:16:32:64-S128"
target triple = "x86_64-pc-linux-gnu"

%"struct.std::_Vector_base" = type { %"struct.std::_Vector_base<int, std::allocator<int>>::_Vector_impl" }
%"struct.std::_Vector_base<int, std::allocator<int>>::_Vector_impl" = type { %"struct.std::_Vector_base<int, std::allocator<int>>::_Vector_impl_data" }
%"struct.std::_Vector_base<int, std::allocator<int>>::_Vector_impl_data" = type { ptr, ptr, ptr }
%"class.cv::RNG" = type { i64 }

; Function Attrs: mustprogress nounwind uwtable
define linkonce_odr hidden void @_ZNSt12_Destroy_auxILb1EE9__destroyIPiEEvT_S3_(ptr noundef %0, ptr noundef %1) #4 comdat align 2 {
  %3 = alloca ptr, align 8
  %4 = alloca ptr, align 8
  store ptr %0, ptr %3, align 8
  store ptr %1, ptr %4, align 8
  ret void
}

; Function Attrs: mustprogress uwtable
define linkonce_odr void @_ZSt8_DestroyIPiEvT_S1_(ptr noundef %0, ptr noundef %1) #6 comdat {
  %3 = alloca ptr, align 8
  %4 = alloca ptr, align 8
  store ptr %0, ptr %3, align 8
  store ptr %1, ptr %4, align 8
  %5 = load ptr, ptr %3, align 8
  %6 = load ptr, ptr %4, align 8
  call void @_ZNSt12_Destroy_auxILb1EE9__destroyIPiEEvT_S3_(ptr noundef %5, ptr noundef %6)
  ret void
}

; Function Attrs: noreturn nounwind uwtable
define linkonce_odr hidden void @__clang_call_terminate(ptr noundef %0) #13 comdat {
  %2 = call ptr @__cxa_begin_catch(ptr %0) #3
  call void @_ZSt9terminatev() #19
  unreachable
}

; Function Attrs: mustprogress uwtable
define linkonce_odr void @_ZSt8_DestroyIPiiEvT_S1_RSaIT0_E(ptr noundef %0, ptr noundef %1, ptr noundef nonnull align 1 dereferenceable(1) %2) #6 comdat {
  %4 = alloca ptr, align 8
  %5 = alloca ptr, align 8
  %6 = alloca ptr, align 8
  store ptr %0, ptr %4, align 8
  store ptr %1, ptr %5, align 8
  store ptr %2, ptr %6, align 8
  %7 = load ptr, ptr %4, align 8
  %8 = load ptr, ptr %5, align 8
  call void @_ZSt8_DestroyIPiEvT_S1_(ptr noundef %7, ptr noundef %8)
  ret void
}

; Function Attrs: mustprogress nounwind uwtable
define linkonce_odr hidden noundef nonnull align 1 dereferenceable(1) ptr @_ZNSt12_Vector_baseIiSaIiEE19_M_get_Tp_allocatorEv(ptr noundef nonnull align 8 dereferenceable(24) %0) #4 comdat align 2 {
  %2 = alloca ptr, align 8
  store ptr %0, ptr %2, align 8
  %3 = load ptr, ptr %2, align 8
  %4 = getelementptr inbounds %"struct.std::_Vector_base", ptr %3, i32 0, i32 0
  ret ptr %4
}

; Function Attrs: mustprogress uwtable
define linkonce_odr hidden noundef double @_ZN2cv3RNGcvdEv(ptr noundef nonnull align 8 dereferenceable(8) %0) #6 comdat align 2 {
  %2 = alloca ptr, align 8
  %3 = alloca i32, align 4
  store ptr %0, ptr %2, align 8
  %4 = load ptr, ptr %2, align 8
  %5 = call noundef i32 @_ZN2cv3RNG4nextEv(ptr noundef nonnull align 8 dereferenceable(8) %4)
  store i32 %5, ptr %3, align 4
  %6 = load i32, ptr %3, align 4
  %7 = zext i32 %6 to i64
  %8 = shl i64 %7, 32
  %9 = call noundef i32 @_ZN2cv3RNG4nextEv(ptr noundef nonnull align 8 dereferenceable(8) %4)
  %10 = zext i32 %9 to i64
  %11 = or i64 %8, %10
  %12 = uitofp i64 %11 to double
  %13 = fmul double %12, 0x3BF0000000000000
  ret double %13
}

; Function Attrs: mustprogress nounwind uwtable
define linkonce_odr hidden void @_ZNSt6vectorIiSaIiEE15_M_erase_at_endEPi(ptr noundef nonnull align 8 dereferenceable(24) %0, ptr noundef %1) #4 comdat align 2 personality ptr @__gxx_personality_v0 {
  %3 = alloca ptr, align 8
  %4 = alloca ptr, align 8
  %5 = alloca i64, align 8
  store ptr %0, ptr %3, align 8
  store ptr %1, ptr %4, align 8
  %6 = load ptr, ptr %3, align 8
  %7 = getelementptr inbounds %"struct.std::_Vector_base", ptr %6, i32 0, i32 0
  %8 = getelementptr inbounds %"struct.std::_Vector_base<int, std::allocator<int>>::_Vector_impl_data", ptr %7, i32 0, i32 1
  %9 = load ptr, ptr %8, align 8
  %10 = load ptr, ptr %4, align 8
  %11 = ptrtoint ptr %9 to i64
  %12 = ptrtoint ptr %10 to i64
  %13 = sub i64 %11, %12
  %14 = sdiv exact i64 %13, 4
  store i64 %14, ptr %5, align 8
  %15 = load i64, ptr %5, align 8
  %16 = icmp ne i64 %15, 0
  br i1 %16, label %17, label %27

17:                                               ; preds = %2
  %18 = load ptr, ptr %4, align 8
  %19 = getelementptr inbounds %"struct.std::_Vector_base", ptr %6, i32 0, i32 0
  %20 = getelementptr inbounds %"struct.std::_Vector_base<int, std::allocator<int>>::_Vector_impl_data", ptr %19, i32 0, i32 1
  %21 = load ptr, ptr %20, align 8
  %22 = call noundef nonnull align 1 dereferenceable(1) ptr @_ZNSt12_Vector_baseIiSaIiEE19_M_get_Tp_allocatorEv(ptr noundef nonnull align 8 dereferenceable(24) %6) #3
  invoke void @_ZSt8_DestroyIPiiEvT_S1_RSaIT0_E(ptr noundef %18, ptr noundef %21, ptr noundef nonnull align 1 dereferenceable(1) %22)
          to label %23 unwind label %28

23:                                               ; preds = %17
  %24 = load ptr, ptr %4, align 8
  %25 = getelementptr inbounds %"struct.std::_Vector_base", ptr %6, i32 0, i32 0
  %26 = getelementptr inbounds %"struct.std::_Vector_base<int, std::allocator<int>>::_Vector_impl_data", ptr %25, i32 0, i32 1
  store ptr %24, ptr %26, align 8
  br label %27

27:                                               ; preds = %23, %2
  ret void

28:                                               ; preds = %17
  %29 = landingpad { ptr, i32 }
          catch ptr null
  %30 = extractvalue { ptr, i32 } %29, 0
  call void @__clang_call_terminate(ptr %30) #19
  unreachable
}

; Function Attrs: mustprogress nounwind uwtable
define linkonce_odr hidden noundef i64 @_ZNKSt6vectorIiSaIiEE4sizeEv(ptr noundef nonnull align 8 dereferenceable(24) %0) #4 comdat align 2 {
  %2 = alloca ptr, align 8
  store ptr %0, ptr %2, align 8
  %3 = load ptr, ptr %2, align 8
  %4 = getelementptr inbounds %"struct.std::_Vector_base", ptr %3, i32 0, i32 0
  %5 = getelementptr inbounds %"struct.std::_Vector_base<int, std::allocator<int>>::_Vector_impl_data", ptr %4, i32 0, i32 1
  %6 = load ptr, ptr %5, align 8
  %7 = getelementptr inbounds %"struct.std::_Vector_base", ptr %3, i32 0, i32 0
  %8 = getelementptr inbounds %"struct.std::_Vector_base<int, std::allocator<int>>::_Vector_impl_data", ptr %7, i32 0, i32 0
  %9 = load ptr, ptr %8, align 8
  %10 = ptrtoint ptr %6 to i64
  %11 = ptrtoint ptr %9 to i64
  %12 = sub i64 %10, %11
  %13 = sdiv exact i64 %12, 4
  ret i64 %13
}

; Function Attrs: mustprogress nounwind uwtable
define linkonce_odr hidden noundef i32 @_ZN2cv3RNG4nextEv(ptr noundef nonnull align 8 dereferenceable(8) %0) #4 comdat align 2 {
  %2 = alloca ptr, align 8
  store ptr %0, ptr %2, align 8
  %3 = load ptr, ptr %2, align 8
  %4 = getelementptr inbounds %"class.cv::RNG", ptr %3, i32 0, i32 0
  %5 = load i64, ptr %4, align 8
  %6 = trunc i64 %5 to i32
  %7 = zext i32 %6 to i64
  %8 = mul i64 %7, 4164903690
  %9 = getelementptr inbounds %"class.cv::RNG", ptr %3, i32 0, i32 0
  %10 = load i64, ptr %9, align 8
  %11 = lshr i64 %10, 32
  %12 = trunc i64 %11 to i32
  %13 = zext i32 %12 to i64
  %14 = add i64 %8, %13
  %15 = getelementptr inbounds %"class.cv::RNG", ptr %3, i32 0, i32 0
  store i64 %14, ptr %15, align 8
  %16 = getelementptr inbounds %"class.cv::RNG", ptr %3, i32 0, i32 0
  %17 = load i64, ptr %16, align 8
  %18 = trunc i64 %17 to i32
  ret i32 %18
}

; Function Attrs: mustprogress nounwind uwtable
define linkonce_odr void @_ZSt4swapIiENSt9enable_ifIXsr6__and_ISt6__not_ISt15__is_tuple_likeIT_EESt21is_move_constructibleIS3_ESt18is_move_assignableIS3_EEE5valueEvE4typeERS3_SC_(ptr noundef nonnull align 4 dereferenceable(4) %0, ptr noundef nonnull align 4 dereferenceable(4) %1) #4 comdat {
  %3 = alloca ptr, align 8
  %4 = alloca ptr, align 8
  %5 = alloca i32, align 4
  store ptr %0, ptr %3, align 8
  store ptr %1, ptr %4, align 8
  %6 = load ptr, ptr %3, align 8
  %7 = load i32, ptr %6, align 4
  store i32 %7, ptr %5, align 4
  %8 = load ptr, ptr %4, align 8
  %9 = load i32, ptr %8, align 4
  %10 = load ptr, ptr %3, align 8
  store i32 %9, ptr %10, align 4
  %11 = load i32, ptr %5, align 4
  %12 = load ptr, ptr %4, align 8
  store i32 %11, ptr %12, align 4
  ret void
}

; Function Attrs: mustprogress nounwind uwtable
define linkonce_odr hidden noundef nonnull align 4 dereferenceable(4) ptr @_ZNSt6vectorIiSaIiEEixEm(ptr noundef nonnull align 8 dereferenceable(24) %0, i64 noundef %1) #4 comdat align 2 {
  %3 = alloca ptr, align 8
  %4 = alloca i64, align 8
  store ptr %0, ptr %3, align 8
  store i64 %1, ptr %4, align 8
  %5 = load ptr, ptr %3, align 8
  %6 = getelementptr inbounds %"struct.std::_Vector_base", ptr %5, i32 0, i32 0
  %7 = getelementptr inbounds %"struct.std::_Vector_base<int, std::allocator<int>>::_Vector_impl_data", ptr %6, i32 0, i32 0
  %8 = load ptr, ptr %7, align 8
  %9 = load i64, ptr %4, align 8
  %10 = getelementptr inbounds i32, ptr %8, i64 %9
  ret ptr %10
}

; Function Attrs: mustprogress uwtable
define internal noundef i32 @_ZL7cvRoundd(double noundef %0) #7 {
  %2 = alloca <2 x double>, align 16
  %3 = alloca double, align 8
  %4 = alloca <2 x double>, align 16
  %5 = alloca double, align 8
  %6 = alloca <2 x double>, align 16
  store double %0, ptr %5, align 8
  %7 = load double, ptr %5, align 8
  store double %7, ptr %3, align 8
  %8 = load double, ptr %3, align 8
  %9 = insertelement <2 x double> poison, double %8, i32 0
  %10 = insertelement <2 x double> %9, double 0.000000e+00, i32 1
  store <2 x double> %10, ptr %4, align 16
  %11 = load <2 x double>, ptr %4, align 16
  store <2 x double> %11, ptr %6, align 16
  %12 = load <2 x double>, ptr %6, align 16
  store <2 x double> %12, ptr %2, align 16
  %13 = load <2 x double>, ptr %2, align 16
  %14 = call noundef i32 @llvm.x86.sse2.cvtsd2si(<2 x double> %13)
  ret i32 %14
}

; Function Attrs: mustprogress uwtable
define linkonce_odr hidden noundef double @_ZN2cv3RNG7uniformEdd(ptr noundef nonnull align 8 dereferenceable(8) %0, double noundef %1, double noundef %2) #6 comdat align 2 {
  %4 = alloca ptr, align 8
  %5 = alloca double, align 8
  %6 = alloca double, align 8
  store ptr %0, ptr %4, align 8
  store double %1, ptr %5, align 8
  store double %2, ptr %6, align 8
  %7 = load ptr, ptr %4, align 8
  %8 = call noundef double @_ZN2cv3RNGcvdEv(ptr noundef nonnull align 8 dereferenceable(8) %7)
  %9 = load double, ptr %6, align 8
  %10 = load double, ptr %5, align 8
  %11 = fsub double %9, %10
  %12 = load double, ptr %5, align 8
  %13 = call double @llvm.fmuladd.f64(double %8, double %11, double %12)
  ret double %13
}

; Function Attrs: mustprogress uwtable
define linkonce_odr hidden void @_ZNSt6vectorIiSaIiEE6resizeEm(ptr noundef nonnull align 8 dereferenceable(24) %0, i64 noundef %1) #6 comdat align 2 {
  %3 = alloca ptr, align 8
  %4 = alloca i64, align 8
  store ptr %0, ptr %3, align 8
  store i64 %1, ptr %4, align 8
  %5 = load ptr, ptr %3, align 8
  %6 = load i64, ptr %4, align 8
  %7 = call noundef i64 @_ZNKSt6vectorIiSaIiEE4sizeEv(ptr noundef nonnull align 8 dereferenceable(24) %5) #3
  %8 = icmp ugt i64 %6, %7
  br i1 %8, label %9, label %13

9:                                                ; preds = %2
  %10 = load i64, ptr %4, align 8
  %11 = call noundef i64 @_ZNKSt6vectorIiSaIiEE4sizeEv(ptr noundef nonnull align 8 dereferenceable(24) %5) #3
  %12 = sub i64 %10, %11
  call void @_ZNSt6vectorIiSaIiEE17_M_default_appendEm(ptr noundef nonnull align 8 dereferenceable(24) %5, i64 noundef %12)
  br label %24

13:                                               ; preds = %2
  %14 = load i64, ptr %4, align 8
  %15 = call noundef i64 @_ZNKSt6vectorIiSaIiEE4sizeEv(ptr noundef nonnull align 8 dereferenceable(24) %5) #3
  %16 = icmp ult i64 %14, %15
  br i1 %16, label %17, label %23

17:                                               ; preds = %13
  %18 = getelementptr inbounds %"struct.std::_Vector_base", ptr %5, i32 0, i32 0
  %19 = getelementptr inbounds %"struct.std::_Vector_base<int, std::allocator<int>>::_Vector_impl_data", ptr %18, i32 0, i32 0
  %20 = load ptr, ptr %19, align 8
  %21 = load i64, ptr %4, align 8
  %22 = getelementptr inbounds i32, ptr %20, i64 %21
  call void @_ZNSt6vectorIiSaIiEE15_M_erase_at_endEPi(ptr noundef nonnull align 8 dereferenceable(24) %5, ptr noundef %22) #3
  br label %23

23:                                               ; preds = %17, %13
  br label %24

24:                                               ; preds = %23, %9
  ret void
}

; Function Attrs: mustprogress nounwind uwtable
define linkonce_odr hidden noundef i32 @_ZN2cv3RNG7uniformEii(ptr noundef nonnull align 8 dereferenceable(8) %0, i32 noundef %1, i32 noundef %2) #4 comdat align 2 {
  %4 = alloca ptr, align 8
  %5 = alloca i32, align 4
  %6 = alloca i32, align 4
  store ptr %0, ptr %4, align 8
  store i32 %1, ptr %5, align 4
  store i32 %2, ptr %6, align 4
  %7 = load ptr, ptr %4, align 8
  %8 = load i32, ptr %5, align 4
  %9 = load i32, ptr %6, align 4
  %10 = icmp eq i32 %8, %9
  br i1 %10, label %11, label %13

11:                                               ; preds = %3
  %12 = load i32, ptr %5, align 4
  br label %21

13:                                               ; preds = %3
  %14 = call noundef i32 @_ZN2cv3RNG4nextEv(ptr noundef nonnull align 8 dereferenceable(8) %7)
  %15 = load i32, ptr %6, align 4
  %16 = load i32, ptr %5, align 4
  %17 = sub nsw i32 %15, %16
  %18 = urem i32 %14, %17
  %19 = load i32, ptr %5, align 4
  %20 = add i32 %18, %19
  br label %21

21:                                               ; preds = %13, %11
  %22 = phi i32 [ %12, %11 ], [ %20, %13 ]
  ret i32 %22
}

; Function Attrs: mustprogress uwtable
define hidden void @_ZN6cvtest10randomSizeERN2cv3RNGEiidRSt6vectorIiSaIiEE(ptr noundef nonnull align 8 dereferenceable(8) %0, i32 noundef %1, i32 noundef %2, double noundef %3, ptr noundef nonnull align 8 dereferenceable(24) %4) #6 {
  %6 = alloca ptr, align 8
  %7 = alloca i32, align 4
  %8 = alloca i32, align 4
  %9 = alloca double, align 8
  %10 = alloca ptr, align 8
  %11 = alloca i32, align 4
  %12 = alloca i32, align 4
  %13 = alloca double, align 8
  %14 = alloca i32, align 4
  %15 = alloca i32, align 4
  store ptr %0, ptr %6, align 8
  store i32 %1, ptr %7, align 4
  store i32 %2, ptr %8, align 4
  store double %3, ptr %9, align 8
  store ptr %4, ptr %10, align 8
  %16 = load ptr, ptr %6, align 8
  %17 = load i32, ptr %7, align 4
  %18 = load i32, ptr %8, align 4
  %19 = add nsw i32 %18, 1
  %20 = call noundef i32 @_ZN2cv3RNG7uniformEii(ptr noundef nonnull align 8 dereferenceable(8) %16, i32 noundef %17, i32 noundef %19)
  store i32 %20, ptr %12, align 4
  %21 = load ptr, ptr %10, align 8
  %22 = load i32, ptr %12, align 4
  %23 = sext i32 %22 to i64
  call void @_ZNSt6vectorIiSaIiEE6resizeEm(ptr noundef nonnull align 8 dereferenceable(24) %21, i64 noundef %23)
  store i32 0, ptr %11, align 4
  br label %24

24:                                               ; preds = %42, %5
  %25 = load i32, ptr %11, align 4
  %26 = load i32, ptr %12, align 4
  %27 = icmp slt i32 %25, %26
  br i1 %27, label %28, label %45

28:                                               ; preds = %24
  %29 = load ptr, ptr %6, align 8
  %30 = load double, ptr %9, align 8
  %31 = call noundef double @_ZN2cv3RNG7uniformEdd(ptr noundef nonnull align 8 dereferenceable(8) %29, double noundef 0.000000e+00, double noundef %30)
  store double %31, ptr %13, align 8
  %32 = load double, ptr %13, align 8
  %33 = load double, ptr %9, align 8
  %34 = fsub double %33, %32
  store double %34, ptr %9, align 8
  %35 = load double, ptr %13, align 8
  %36 = call double @exp(double noundef %35) #3
  %37 = call noundef i32 @_ZL7cvRoundd(double noundef %36)
  %38 = load ptr, ptr %10, align 8
  %39 = load i32, ptr %11, align 4
  %40 = sext i32 %39 to i64
  %41 = call noundef nonnull align 4 dereferenceable(4) ptr @_ZNSt6vectorIiSaIiEEixEm(ptr noundef nonnull align 8 dereferenceable(24) %38, i64 noundef %40) #3
  store i32 %37, ptr %41, align 4
  br label %42

42:                                               ; preds = %28
  %43 = load i32, ptr %11, align 4
  %44 = add nsw i32 %43, 1
  store i32 %44, ptr %11, align 4
  br label %24, !llvm.loop !7

45:                                               ; preds = %24
  store i32 0, ptr %11, align 4
  br label %46

46:                                               ; preds = %65, %45
  %47 = load i32, ptr %11, align 4
  %48 = load i32, ptr %12, align 4
  %49 = icmp slt i32 %47, %48
  br i1 %49, label %50, label %68

50:                                               ; preds = %46
  %51 = load ptr, ptr %6, align 8
  %52 = load i32, ptr %12, align 4
  %53 = call noundef i32 @_ZN2cv3RNG7uniformEii(ptr noundef nonnull align 8 dereferenceable(8) %51, i32 noundef 0, i32 noundef %52)
  store i32 %53, ptr %14, align 4
  %54 = load ptr, ptr %6, align 8
  %55 = load i32, ptr %12, align 4
  %56 = call noundef i32 @_ZN2cv3RNG7uniformEii(ptr noundef nonnull align 8 dereferenceable(8) %54, i32 noundef 0, i32 noundef %55)
  store i32 %56, ptr %15, align 4
  %57 = load ptr, ptr %10, align 8
  %58 = load i32, ptr %14, align 4
  %59 = sext i32 %58 to i64
  %60 = call noundef nonnull align 4 dereferenceable(4) ptr @_ZNSt6vectorIiSaIiEEixEm(ptr noundef nonnull align 8 dereferenceable(24) %57, i64 noundef %59) #3
  %61 = load ptr, ptr %10, align 8
  %62 = load i32, ptr %15, align 4
  %63 = sext i32 %62 to i64
  %64 = call noundef nonnull align 4 dereferenceable(4) ptr @_ZNSt6vectorIiSaIiEEixEm(ptr noundef nonnull align 8 dereferenceable(24) %61, i64 noundef %63) #3
  call void @_ZSt4swapIiENSt9enable_ifIXsr6__and_ISt6__not_ISt15__is_tuple_likeIT_EESt21is_move_constructibleIS3_ESt18is_move_assignableIS3_EEE5valueEvE4typeERS3_SC_(ptr noundef nonnull align 4 dereferenceable(4) %60, ptr noundef nonnull align 4 dereferenceable(4) %64) #3
  br label %65

65:                                               ; preds = %50
  %66 = load i32, ptr %11, align 4
  %67 = add nsw i32 %66, 1
  store i32 %67, ptr %11, align 4
  br label %46, !llvm.loop !8

68:                                               ; preds = %46
  ret void
}