; Function Attrs: mustprogress uwtable
define hidden void @_ZN6cvtest10randomSizeERN2cv3RNGEiidRSt6vectorIiSaIiEE(ptr nocapture noundef nonnull align 8 dereferenceable(8) %0, i32 noundef %1, i32 noundef %2, double noundef %3, ptr noundef nonnull align 8 dereferenceable(24) %4) local_unnamed_addr #10 personality ptr @__gxx_personality_v0 {
  %6 = add nsw i32 %2, 1
  %7 = icmp eq i32 %6, %1
  br i1 %7, label %_ZN2cv3RNG7uniformEii.exit, label %8

8:                                                ; preds = %5
  %9 = load i64, ptr %0, align 8
  %10 = and i64 %9, 4294967295
  %11 = mul nuw i64 %10, 4164903690
  %12 = lshr i64 %9, 32
  %13 = add nuw i64 %11, %12
  store i64 %13, ptr %0, align 8
  %14 = trunc i64 %13 to i32
  %15 = sub nsw i32 %6, %1
  %16 = urem i32 %14, %15
  %17 = add i32 %16, %1
  br label %_ZN2cv3RNG7uniformEii.exit

_ZN2cv3RNG7uniformEii.exit:                       ; preds = %5, %8
  %18 = phi i32 [ %17, %8 ], [ %1, %5 ]
  %19 = sext i32 %18 to i64
  %20 = getelementptr inbounds i8, ptr %4, i64 8
  %21 = load ptr, ptr %20, align 8
  %22 = load ptr, ptr %4, align 8
  %23 = ptrtoint ptr %21 to i64
  %24 = ptrtoint ptr %22 to i64
  %25 = sub i64 %23, %24
  %26 = ashr exact i64 %25, 2
  %27 = icmp ult i64 %26, %19
  br i1 %27, label %28, label %30

28:                                               ; preds = %_ZN2cv3RNG7uniformEii.exit
  %29 = sub nsw i64 %19, %26
  tail call void @_ZNSt6vectorIiSaIiEE17_M_default_appendEm(ptr noundef nonnull align 8 dereferenceable(24) %4, i64 noundef %29)
  br label %_ZNSt6vectorIiSaIiEE6resizeEm.exit

30:                                               ; preds = %_ZN2cv3RNG7uniformEii.exit
  %31 = icmp ugt i64 %26, %19
  br i1 %31, label %32, label %_ZNSt6vectorIiSaIiEE6resizeEm.exit

32:                                               ; preds = %30
  %33 = getelementptr inbounds i32, ptr %22, i64 %19
  %.not.i.i = icmp eq ptr %21, %33
  br i1 %.not.i.i, label %_ZNSt6vectorIiSaIiEE6resizeEm.exit, label %34

34:                                               ; preds = %32
  store ptr %33, ptr %20, align 8
  br label %_ZNSt6vectorIiSaIiEE6resizeEm.exit

_ZNSt6vectorIiSaIiEE6resizeEm.exit:               ; preds = %28, %30, %32, %34
  %35 = icmp sgt i32 %18, 0
  br i1 %35, label %.lr.ph.preheader, label %._crit_edge

.lr.ph.preheader:                                 ; preds = %_ZNSt6vectorIiSaIiEE6resizeEm.exit
  %wide.trip.count = zext nneg i32 %18 to i64
  br label %.lr.ph

.preheader:                                       ; preds = %.lr.ph
  br i1 %35, label %_ZN2cv3RNG7uniformEii.exit28, label %._crit_edge

.lr.ph:                                           ; preds = %.lr.ph.preheader, %.lr.ph
  %indvars.iv = phi i64 [ 0, %.lr.ph.preheader ], [ %indvars.iv.next, %.lr.ph ]
  %.030 = phi double [ %3, %.lr.ph.preheader ], [ %51, %.lr.ph ]
  %36 = load i64, ptr %0, align 8
  %37 = and i64 %36, 4294967295
  %38 = mul nuw i64 %37, 4164903690
  %39 = lshr i64 %36, 32
  %40 = add nuw i64 %38, %39
  %41 = shl i64 %40, 32
  %42 = and i64 %40, 4294967295
  %43 = mul nuw i64 %42, 4164903690
  %44 = lshr i64 %40, 32
  %45 = add nuw i64 %43, %44
  store i64 %45, ptr %0, align 8
  %46 = and i64 %45, 4294967295
  %47 = or disjoint i64 %46, %41
  %48 = uitofp i64 %47 to double
  %49 = fmul double %48, 0x3BF0000000000000
  %50 = tail call noundef double @llvm.fmuladd.f64(double %49, double %.030, double 0.000000e+00)
  %51 = fsub double %.030, %50
  %52 = tail call double @exp(double noundef %50) #28
  %53 = insertelement <2 x double> poison, double %52, i64 0
  %54 = tail call noundef i32 @llvm.x86.sse2.cvtsd2si(<2 x double> %53)
  %55 = load ptr, ptr %4, align 8
  %56 = getelementptr inbounds i32, ptr %55, i64 %indvars.iv
  store i32 %54, ptr %56, align 4
  %indvars.iv.next = add nuw nsw i64 %indvars.iv, 1
  %exitcond.not = icmp eq i64 %indvars.iv.next, %wide.trip.count
  br i1 %exitcond.not, label %.preheader, label %.lr.ph, !llvm.loop !7

_ZN2cv3RNG7uniformEii.exit28:                     ; preds = %.preheader, %_ZN2cv3RNG7uniformEii.exit28
  %.131 = phi i32 [ %77, %_ZN2cv3RNG7uniformEii.exit28 ], [ 0, %.preheader ]
  %57 = load i64, ptr %0, align 8
  %58 = and i64 %57, 4294967295
  %59 = mul nuw i64 %58, 4164903690
  %60 = lshr i64 %57, 32
  %61 = add nuw i64 %59, %60
  %62 = trunc i64 %61 to i32
  %63 = urem i32 %62, %18
  %64 = and i64 %61, 4294967295
  %65 = mul nuw i64 %64, 4164903690
  %66 = lshr i64 %61, 32
  %67 = add nuw i64 %65, %66
  store i64 %67, ptr %0, align 8
  %68 = trunc i64 %67 to i32
  %69 = urem i32 %68, %18
  %70 = zext nneg i32 %63 to i64
  %71 = load ptr, ptr %4, align 8
  %72 = getelementptr inbounds i32, ptr %71, i64 %70
  %73 = zext nneg i32 %69 to i64
  %74 = getelementptr inbounds i32, ptr %71, i64 %73
  %75 = load i32, ptr %72, align 4
  %76 = load i32, ptr %74, align 4
  store i32 %76, ptr %72, align 4
  store i32 %75, ptr %74, align 4
  %77 = add nuw nsw i32 %.131, 1
  %exitcond33.not = icmp eq i32 %77, %18
  br i1 %exitcond33.not, label %._crit_edge, label %_ZN2cv3RNG7uniformEii.exit28, !llvm.loop !8

._crit_edge:                                      ; preds = %_ZN2cv3RNG7uniformEii.exit28, %_ZNSt6vectorIiSaIiEE6resizeEm.exit, %.preheader
  ret void
}